; Function Attrs: mustprogress nofree norecurse nosync nounwind willreturn memory(read, inaccessiblemem: none) uwtable
define hidden noundef float @_ZN5zxing6qrcode22AlignmentPatternFinder13centerFromEndERSt6vectorIiSaIiEEi(ptr nocapture noundef nonnull readonly align 8 dereferenceable(24) %0, i32 noundef %1) local_unnamed_addr #3 align 2 {
  %3 = load ptr, ptr %0, align 8
  %4 = getelementptr inbounds i8, ptr %3, i64 8
  %5 = load i32, ptr %4, align 4
  %6 = sub nsw i32 %1, %5
  %7 = sitofp i32 %6 to float
  %8 = getelementptr inbounds i8, ptr %3, i64 4
  %9 = load i32, ptr %8, align 4
  %10 = sitofp i32 %9 to float
  %11 = fmul float %10, 5.000000e-01
  %12 = fsub float %7, %11
  ret float %12
}